target datalayout = "e-m:e-p270:32:32-p271:32:32-p272:64:64-i64:64-i128:128-f80:128-n8:16:32:64-S128"
target triple = "x86_64-pc-linux-gnu"

%class.AtomNonbondedAndKineticProperties = type { i16, i32, i16, i16, i16, float, float, float }

; Function Attrs: inlinehint mustprogress nounwind uwtable
define linkonce_odr noundef nonnull align 4 dereferenceable(4) ptr @_ZSt3minIfERKT_S2_S2_(ptr noundef nonnull align 4 dereferenceable(4) %0, ptr noundef nonnull align 4 dereferenceable(4) %1) #4 comdat {
  %3 = alloca ptr, align 8
  %4 = alloca ptr, align 8
  %5 = alloca ptr, align 8
  store ptr %0, ptr %4, align 8, !tbaa !48
  store ptr %1, ptr %5, align 8, !tbaa !48
  %6 = load ptr, ptr %5, align 8, !tbaa !48
  %7 = load float, ptr %6, align 4, !tbaa !44
  %8 = load ptr, ptr %4, align 8, !tbaa !48
  %9 = load float, ptr %8, align 4, !tbaa !44
  %10 = fcmp olt float %7, %9
  br i1 %10, label %11, label %13

11:                                               ; preds = %2
  %12 = load ptr, ptr %5, align 8, !tbaa !48
  store ptr %12, ptr %3, align 8
  br label %15

13:                                               ; preds = %2
  %14 = load ptr, ptr %4, align 8, !tbaa !48
  store ptr %14, ptr %3, align 8
  br label %15

15:                                               ; preds = %13, %11
  %16 = load ptr, ptr %3, align 8
  ret ptr %16
}

; Function Attrs: inlinehint mustprogress nounwind uwtable
define linkonce_odr noundef float @_ZSt4sqrtf(float noundef %0) #4 comdat {
  %2 = alloca float, align 4
  store float %0, ptr %2, align 4, !tbaa !44
  %3 = load float, ptr %2, align 4, !tbaa !44
  %4 = call float @sqrtf(float noundef %3) #5, !tbaa !57
  ret float %4
}

; Function Attrs: mustprogress nounwind uwtable
define linkonce_odr noundef float @_ZN3gmx6squareIfEET_S1_(float noundef %0) #2 comdat {
  %2 = alloca float, align 4
  store float %0, ptr %2, align 4, !tbaa !44
  %3 = load float, ptr %2, align 4, !tbaa !44
  %4 = load float, ptr %2, align 4, !tbaa !44
  %5 = fmul float %3, %4
  ret float %5
}

; Function Attrs: mustprogress nounwind uwtable
define linkonce_odr noundef float @_ZNK33AtomNonbondedAndKineticProperties16constraintLengthEv(ptr noundef nonnull align 4 dereferenceable(28) %0) #2 comdat align 2 {
  %2 = alloca ptr, align 8
  store ptr %0, ptr %2, align 8, !tbaa !46
  %3 = load ptr, ptr %2, align 8
  %4 = getelementptr inbounds nuw %class.AtomNonbondedAndKineticProperties, ptr %3, i32 0, i32 7
  %5 = load float, ptr %4, align 4, !tbaa !55
  %6 = getelementptr inbounds nuw %class.AtomNonbondedAndKineticProperties, ptr %3, i32 0, i32 4
  %7 = load i16, ptr %6, align 4, !tbaa !56
  %8 = sext i16 %7 to i32
  %9 = sitofp i32 %8 to float
  %10 = fmul float %5, %9
  ret float %10
}

; Function Attrs: mustprogress nounwind uwtable
define linkonce_odr noundef float @_ZNK33AtomNonbondedAndKineticProperties7invMassEv(ptr noundef nonnull align 4 dereferenceable(28) %0) #2 comdat align 2 {
  %2 = alloca ptr, align 8
  store ptr %0, ptr %2, align 8, !tbaa !46
  %3 = load ptr, ptr %2, align 8
  %4 = getelementptr inbounds nuw %class.AtomNonbondedAndKineticProperties, ptr %3, i32 0, i32 5
  %5 = load float, ptr %4, align 4, !tbaa !50
  %6 = getelementptr inbounds nuw %class.AtomNonbondedAndKineticProperties, ptr %3, i32 0, i32 0
  %7 = load i16, ptr %6, align 4, !tbaa !54
  %8 = sext i16 %7 to i32
  %9 = sitofp i32 %8 to float
  %10 = fmul float %5, %9
  ret float %10
}

; Function Attrs: mustprogress nounwind uwtable
define linkonce_odr noundef float @_ZNK33AtomNonbondedAndKineticProperties17constraintInvMassEv(ptr noundef nonnull align 4 dereferenceable(28) %0) #2 comdat align 2 {
  %2 = alloca ptr, align 8
  store ptr %0, ptr %2, align 8, !tbaa !46
  %3 = load ptr, ptr %2, align 8
  %4 = getelementptr inbounds nuw %class.AtomNonbondedAndKineticProperties, ptr %3, i32 0, i32 5
  %5 = load float, ptr %4, align 4, !tbaa !50
  %6 = getelementptr inbounds nuw %class.AtomNonbondedAndKineticProperties, ptr %3, i32 0, i32 3
  %7 = load i16, ptr %6, align 2, !tbaa !53
  %8 = sext i16 %7 to i32
  %9 = sitofp i32 %8 to float
  %10 = fmul float %5, %9
  ret float %10
}

; Function Attrs: mustprogress uwtable
define void @_Z23constrained_atom_sigma2fRK33AtomNonbondedAndKineticPropertiesPfS2_(float noundef %0, ptr noundef nonnull align 4 dereferenceable(28) %1, ptr noundef %2, ptr noundef %3) #3 {
  %5 = alloca float, align 4
  %6 = alloca ptr, align 8
  %7 = alloca ptr, align 8
  %8 = alloca ptr, align 8
  %9 = alloca float, align 4
  %10 = alloca float, align 4
  %11 = alloca float, align 4
  %12 = alloca float, align 4
  %13 = alloca float, align 4
  %14 = alloca float, align 4
  %15 = alloca float, align 4
  store float %0, ptr %5, align 4, !tbaa !44
  store ptr %1, ptr %6, align 8, !tbaa !46
  store ptr %2, ptr %7, align 8, !tbaa !48
  store ptr %3, ptr %8, align 8, !tbaa !48
  call void @llvm.lifetime.start.p0(i64 4, ptr %9) #5
  %16 = load ptr, ptr %6, align 8, !tbaa !46
  %17 = call noundef float @_ZNK33AtomNonbondedAndKineticProperties17constraintInvMassEv(ptr noundef nonnull align 4 dereferenceable(28) %16)
  %18 = load ptr, ptr %6, align 8, !tbaa !46
  %19 = call noundef float @_ZNK33AtomNonbondedAndKineticProperties7invMassEv(ptr noundef nonnull align 4 dereferenceable(28) %18)
  %20 = fdiv float 1.000000e+00, %19
  %21 = load ptr, ptr %6, align 8, !tbaa !46
  %22 = call noundef float @_ZNK33AtomNonbondedAndKineticProperties17constraintInvMassEv(ptr noundef nonnull align 4 dereferenceable(28) %21)
  %23 = fdiv float 1.000000e+00, %22
  %24 = fadd float %20, %23
  %25 = fmul float %17, %24
  %26 = fdiv float 1.000000e+00, %25
  store float %26, ptr %9, align 4, !tbaa !44
  call void @llvm.lifetime.start.p0(i64 4, ptr %10) #5
  %27 = load float, ptr %5, align 4, !tbaa !44
  %28 = load float, ptr %9, align 4, !tbaa !44
  %29 = fmul float %27, %28
  %30 = load ptr, ptr %6, align 8, !tbaa !46
  %31 = call noundef float @_ZNK33AtomNonbondedAndKineticProperties7invMassEv(ptr noundef nonnull align 4 dereferenceable(28) %30)
  %32 = fmul float %29, %31
  store float %32, ptr %10, align 4, !tbaa !44
  call void @llvm.lifetime.start.p0(i64 4, ptr %11) #5
  %33 = load ptr, ptr %6, align 8, !tbaa !46
  %34 = call noundef float @_ZNK33AtomNonbondedAndKineticProperties16constraintLengthEv(ptr noundef nonnull align 4 dereferenceable(28) %33)
  %35 = load float, ptr %9, align 4, !tbaa !44
  %36 = fmul float %34, %35
  store float %36, ptr %11, align 4, !tbaa !44
  call void @llvm.lifetime.start.p0(i64 4, ptr %12) #5
  %37 = load float, ptr %10, align 4, !tbaa !44
  %38 = load float, ptr %11, align 4, !tbaa !44
  %39 = call noundef float @_ZN3gmx6squareIfEET_S1_(float noundef %38)
  %40 = fdiv float %37, %39
  store float %40, ptr %12, align 4, !tbaa !44
  call void @llvm.lifetime.start.p0(i64 4, ptr %13) #5
  store float 0x3FD5555560000000, ptr %13, align 4, !tbaa !44
  call void @llvm.lifetime.start.p0(i64 4, ptr %14) #5
  store float 0x3FA6C16C20000000, ptr %14, align 4, !tbaa !44
  call void @llvm.lifetime.start.p0(i64 4, ptr %15) #5
  %41 = call noundef float @_ZSt4sqrtf(float noundef 0x3FA6C16C20000000)
  %42 = fdiv float 1.000000e+00, %41
  store float %42, ptr %15, align 4, !tbaa !44
  %43 = call noundef nonnull align 4 dereferenceable(4) ptr @_ZSt3minIfERKT_S2_S2_(ptr noundef nonnull align 4 dereferenceable(4) %12, ptr noundef nonnull align 4 dereferenceable(4) %15)
  %44 = load float, ptr %43, align 4, !tbaa !44
  store float %44, ptr %12, align 4, !tbaa !44
  call void @llvm.lifetime.end.p0(i64 4, ptr %15) #5
  %45 = load float, ptr %11, align 4, !tbaa !44
  %46 = call noundef float @_ZN3gmx6squareIfEET_S1_(float noundef %45)
  %47 = load float, ptr %12, align 4, !tbaa !44
  %48 = fmul float %46, %47
  %49 = load float, ptr %12, align 4, !tbaa !44
  %50 = call float @llvm.fmuladd.f32(float 0x3FD5555560000000, float %49, float 1.000000e+00)
  %51 = load float, ptr %12, align 4, !tbaa !44
  %52 = call noundef float @_ZN3gmx6squareIfEET_S1_(float noundef %51)
  %53 = call float @llvm.fmuladd.f32(float 0x3FA6C16C20000000, float %52, float %50)
  %54 = fdiv float %48, %53
  %55 = load ptr, ptr %7, align 8, !tbaa !48
  store float %54, ptr %55, align 4, !tbaa !44
  %56 = load float, ptr %5, align 4, !tbaa !44
  %57 = load ptr, ptr %6, align 8, !tbaa !46
  %58 = call noundef float @_ZNK33AtomNonbondedAndKineticProperties7invMassEv(ptr noundef nonnull align 4 dereferenceable(28) %57)
  %59 = fdiv float 1.000000e+00, %58
  %60 = load ptr, ptr %6, align 8, !tbaa !46
  %61 = call noundef float @_ZNK33AtomNonbondedAndKineticProperties17constraintInvMassEv(ptr noundef nonnull align 4 dereferenceable(28) %60)
  %62 = fdiv float 1.000000e+00, %61
  %63 = fadd float %59, %62
  %64 = fdiv float %56, %63
  %65 = load ptr, ptr %8, align 8, !tbaa !48
  store float %64, ptr %65, align 4, !tbaa !44
  call void @llvm.lifetime.end.p0(i64 4, ptr %14) #5
  call void @llvm.lifetime.end.p0(i64 4, ptr %13) #5
  call void @llvm.lifetime.end.p0(i64 4, ptr %12) #5
  call void @llvm.lifetime.end.p0(i64 4, ptr %11) #5
  call void @llvm.lifetime.end.p0(i64 4, ptr %10) #5
  call void @llvm.lifetime.end.p0(i64 4, ptr %9) #5
  ret void
}