; Function Attrs: mustprogress nofree norecurse nosync nounwind willreturn memory(argmem: readwrite) uwtable
define void @_Z23constrained_atom_sigma2fRK33AtomNonbondedAndKineticPropertiesPfS2_(float noundef %0, ptr noundef nonnull readonly align 4 captures(none) dereferenceable(28) %1, ptr noundef writeonly captures(none) initializes((0, 4)) %2, ptr noundef writeonly captures(none) initializes((0, 4)) %3) local_unnamed_addr #12 {
  %5 = getelementptr inbounds nuw i8, ptr %1, i64 16
  %6 = load float, ptr %5, align 4, !tbaa !16
  %7 = getelementptr inbounds nuw i8, ptr %1, i64 10
  %8 = load i16, ptr %7, align 2, !tbaa !21
  %9 = sitofp i16 %8 to float
  %10 = fmul float %6, %9
  %11 = load i16, ptr %1, align 4, !tbaa !22
  %12 = sitofp i16 %11 to float
  %13 = fmul float %6, %12
  %14 = fdiv float 1.000000e+00, %13
  %15 = fdiv float 1.000000e+00, %10
  %16 = fadd float %15, %14
  %17 = fmul float %10, %16
  %18 = fdiv float 1.000000e+00, %17
  %19 = fmul float %0, %18
  %20 = fmul float %13, %19
  %21 = getelementptr inbounds nuw i8, ptr %1, i64 24
  %22 = load float, ptr %21, align 4, !tbaa !23
  %23 = getelementptr inbounds nuw i8, ptr %1, i64 12
  %24 = load i16, ptr %23, align 4, !tbaa !24
  %25 = sitofp i16 %24 to float
  %26 = fmul float %22, %25
  %27 = fmul float %26, %18
  %28 = fmul float %27, %27
  %29 = fdiv float %20, %28
  %30 = fcmp ogt float %29, 0x4012F94220000000
  %.sroa.speculated = select i1 %30, float 0x4012F94220000000, float %29
  %31 = fmul float %28, %.sroa.speculated
  %32 = tail call float @llvm.fmuladd.f32(float %.sroa.speculated, float 0x3FD5555560000000, float 1.000000e+00)
  %33 = fmul float %.sroa.speculated, %.sroa.speculated
  %34 = tail call float @llvm.fmuladd.f32(float %33, float 0x3FA6C16C20000000, float %32)
  %35 = fdiv float %31, %34
  store float %35, ptr %2, align 4, !tbaa !25
  %36 = load float, ptr %5, align 4, !tbaa !16
  %37 = fmul float %36, %12
  %38 = fdiv float 1.000000e+00, %37
  %39 = fmul float %36, %9
  %40 = fdiv float 1.000000e+00, %39
  %41 = fadd float %38, %40
  %42 = fdiv float %0, %41
  store float %42, ptr %3, align 4, !tbaa !25
  ret void
}